TN:
SF:/repo/src/DAL/AdminOptionsDal.h
FN:16,16,_ZN16IAdminOptionsDalD0Ev
FN:16,16,_ZN16IAdminOptionsDalD2Ev
FNDA:0,_ZN16IAdminOptionsDalD0Ev
FNDA:44,_ZN16IAdminOptionsDalD2Ev
FNF:2
FNH:1
DA:16,44
LF:1
LH:1
end_of_record
TN:
SF:/repo/src/DAL/CustomerOptionsDal.h
FN:15,15,_ZN19ICustomerOptionsDalD0Ev
FN:15,15,_ZN19ICustomerOptionsDalD2Ev
FNDA:0,_ZN19ICustomerOptionsDalD0Ev
FNDA:24,_ZN19ICustomerOptionsDalD2Ev
FNF:2
FNH:1
DA:15,24
LF:1
LH:1
end_of_record
TN:
SF:/repo/src/DAL/LoginDal.h
FN:17,17,_ZN9ILoginDalD0Ev
FN:17,17,_ZN9ILoginDalD2Ev
FNDA:0,_ZN9ILoginDalD0Ev
FNDA:14,_ZN9ILoginDalD2Ev
FNF:2
FNH:1
DA:17,14
LF:1
LH:1
end_of_record
TN:
SF:/repo/src/model/Account.h
FN:27,35,_ZN7AccountC2EiRKNSt7__cxx1112basic_stringIcSt11char_traitsIcESaIcEEES7_S7_dS7_b
FN:38,38,_ZNK7Account16getAccountNumberEv
FN:40,40,_ZNK7Account8getLoginB5cxx11Ev
FN:42,42,_ZNK7Account6getPinB5cxx11Ev
FN:44,44,_ZNK7Account13getHolderNameB5cxx11Ev
FN:46,46,_ZNK7Account10getBalanceEv
FN:48,48,_ZNK7Account9getStatusB5cxx11Ev
FN:50,50,_ZNK7Account7isAdminEv
FNDA:268,_ZN7AccountC2EiRKNSt7__cxx1112basic_stringIcSt11char_traitsIcESaIcEEES7_S7_dS7_b
FNDA:48,_ZNK7Account16getAccountNumberEv
FNDA:52,_ZNK7Account8getLoginB5cxx11Ev
FNDA:48,_ZNK7Account6getPinB5cxx11Ev
FNDA:60,_ZNK7Account13getHolderNameB5cxx11Ev
FNDA:84,_ZNK7Account10getBalanceEv
FNDA:52,_ZNK7Account9getStatusB5cxx11Ev
FNDA:86,_ZNK7Account7isAdminEv
FNF:8
FNH:8
DA:27,268
DA:29,268
DA:30,268
DA:31,268
DA:32,268
DA:33,268
DA:34,268
DA:35,268
DA:38,48
DA:40,52
DA:42,48
DA:44,60
DA:46,84
DA:48,52
DA:50,86
LF:15
LH:15
end_of_record
TN:
SF:/repo/src/model/AdminOptions.h
FN:105,110,_ZN12AdminOptions13getHolderNameB5cxx11Ei
FN:119,136,_ZN12AdminOptions18updateAccountFieldEiRKNSt7__cxx1112basic_stringIcSt11char_traitsIcESaIcEEES7_
FN:143,145,_ZN12AdminOptions13searchAccountEi
FN:21,22,_ZN11AdminResultC2EbRKNSt7__cxx1112basic_stringIcSt11char_traitsIcESaIcEEEi
FN:39,47,_ZNK12AdminOptions10isValidPinERKNSt7__cxx1112basic_stringIcSt11char_traitsIcESaIcEEE
FN:54,54,_ZN12AdminOptionsC2EP16IAdminOptionsDal
FN:60,81,_ZN12AdminOptions13createAccountERKNSt7__cxx1112basic_stringIcSt11char_traitsIcESaIcEEES7_S7_dS7_
FN:88,98,_ZN12AdminOptions13deleteAccountEi
FNDA:6,_ZN12AdminOptions13getHolderNameB5cxx11Ei
FNDA:14,_ZN12AdminOptions18updateAccountFieldEiRKNSt7__cxx1112basic_stringIcSt11char_traitsIcESaIcEEES7_
FNDA:14,_ZN12AdminOptions13searchAccountEi
FNDA:32,_ZN11AdminResultC2EbRKNSt7__cxx1112basic_stringIcSt11char_traitsIcESaIcEEEi
FNDA:14,_ZNK12AdminOptions10isValidPinERKNSt7__cxx1112basic_stringIcSt11char_traitsIcESaIcEEE
FNDA:44,_ZN12AdminOptionsC2EP16IAdminOptionsDal
FNDA:12,_ZN12AdminOptions13createAccountERKNSt7__cxx1112basic_stringIcSt11char_traitsIcESaIcEEES7_S7_dS7_
FNDA:6,_ZN12AdminOptions13deleteAccountEi
FNF:8
FNH:8
DA:21,32
DA:22,32
DA:39,14
DA:40,14
DA:41,6
DA:42,38
DA:43,32
DA:44,2
DA:46,6
DA:54,44
DA:60,12
DA:63,12
DA:64,4
DA:66,10
DA:67,12
DA:69,4
DA:70,4
DA:73,2
DA:74,2
DA:75,0
DA:78,4
DA:79,4
DA:80,2
DA:88,6
DA:89,6
DA:90,6
DA:91,8
DA:93,2
DA:94,2
DA:95,0
DA:97,4
DA:98,6
DA:105,6
DA:106,6
DA:107,6
DA:108,8
DA:109,2
DA:110,6
DA:119,14
DA:121,14
DA:123,4
DA:126,12
DA:127,12
DA:128,4
DA:131,10
DA:132,10
DA:133,0
DA:135,20
DA:136,12
DA:143,14
DA:144,14
LF:51
LH:48
end_of_record
TN:
SF:/repo/src/model/CustomerOptions.h
FN:20,21,_ZN17TransactionResultC2EbRKNSt7__cxx1112basic_stringIcSt11char_traitsIcESaIcEEEd
FN:40,40,_ZN15CustomerOptionsC2EP19ICustomerOptionsDal
FN:48,62,_ZN15CustomerOptions8withdrawERK7Accountd
FN:70,81,_ZN15CustomerOptions7depositERK7Accountd
FN:88,88,_ZN15CustomerOptions10getBalanceERK7Account
FNDA:20,_ZN17TransactionResultC2EbRKNSt7__cxx1112basic_stringIcSt11char_traitsIcESaIcEEEd
FNDA:24,_ZN15CustomerOptionsC2EP19ICustomerOptionsDal
FNDA:12,_ZN15CustomerOptions8withdrawERK7Accountd
FNDA:8,_ZN15CustomerOptions7depositERK7Accountd
FNDA:4,_ZN15CustomerOptions10getBalanceERK7Account
FNF:5
FNH:5
DA:20,20
DA:21,20
DA:40,24
DA:48,12
DA:49,12
DA:50,8
DA:52,8
DA:53,4
DA:56,6
DA:57,6
DA:58,6
DA:59,4
DA:61,8
DA:70,8
DA:71,8
DA:72,8
DA:75,4
DA:76,4
DA:77,4
DA:78,0
DA:80,8
DA:88,4
LF:22
LH:21
end_of_record
TN:
SF:/repo/src/model/Login.h
FN:24,24,_ZN5LoginC2EP9ILoginDal
FN:32,37,_ZN5Login12authenticateERKNSt7__cxx1112basic_stringIcSt11char_traitsIcESaIcEEES7_
FNDA:14,_ZN5LoginC2EP9ILoginDal
FNDA:14,_ZN5Login12authenticateERKNSt7__cxx1112basic_stringIcSt11char_traitsIcESaIcEEES7_
FNF:2
FNH:2
DA:24,14
DA:32,14
DA:33,14
DA:34,6
DA:36,8
LF:5
LH:5
end_of_record
